; Function Attrs: mustprogress nofree norecurse nounwind willreturn memory(argmem: readwrite) uwtable
define void @_ZN7rocksdb18GenericRateLimiter25SetSingleBurstBytesLockedEl(ptr nocapture noundef nonnull align 8 dereferenceable(608) %this, i64 noundef %single_burst_bytes) local_unnamed_addr #2 align 2 personality ptr @__gxx_personality_v0 {
entry:
  %refill_bytes_per_period_ = getelementptr inbounds i8, ptr %this, i64 72
  store atomic i64 %single_burst_bytes, ptr %refill_bytes_per_period_ monotonic, align 8
  %rate_bytes_per_sec_.i = getelementptr inbounds i8, ptr %this, i64 64
  %0 = load atomic i64, ptr %rate_bytes_per_sec_.i monotonic, align 8
  %div.i = sdiv i64 9223372036854775807, %single_burst_bytes
  %cmp.i = icmp slt i64 %div.i, 1000000
  %mul.i = mul nsw i64 %single_burst_bytes, 1000000
  %spec.select.i = select i1 %cmp.i, i64 9223372036854775807, i64 %mul.i
  %retval.0.i = sdiv i64 %spec.select.i, %0
  %refill_period_us_ = getelementptr inbounds i8, ptr %this, i64 56
  store atomic i64 %retval.0.i, ptr %refill_period_us_ monotonic, align 8
  ret void
}